; Function Attrs: null_pointer_is_valid sspstrong uwtable
define internal fastcc void @proto_mpeg_descriptor_dissect_multilng_bouquet_name_desc(ptr noundef %0, i32 noundef %1, i32 noundef range(i32 1, 256) %2, ptr noundef %3) unnamed_addr #1 {
  %5 = alloca ptr, align 8
  %6 = alloca ptr, align 8
  %7 = alloca i32, align 4
  br label %8

8:                                                ; preds = %4, %26
  %.060 = phi i32 [ %1, %4 ], [ %45, %26 ]
  %.04659 = phi i32 [ %2, %4 ], [ %44, %26 ]
  call void @llvm.lifetime.start.p0(i64 8, ptr nonnull %5) #5
  call void @llvm.lifetime.start.p0(i64 8, ptr nonnull %6) #5
  %9 = icmp ult i32 %.04659, 3
  br i1 %9, label %.thread, label %10

10:                                               ; preds = %8
  %11 = icmp eq i32 %.04659, 3
  br i1 %11, label %proto_mpeg_descriptor_dissect_multilng_bouquet_name_desc_measure_lng_len.exit, label %12

12:                                               ; preds = %10
  %13 = add i32 %.060, 3
  %14 = call zeroext i8 @tvb_get_uint8(ptr noundef %0, i32 noundef %13)
  %15 = zext i8 %14 to i32
  %16 = add i32 %.04659, -4
  %17 = call i32 @llvm.umin.i32(i32 %16, i32 %15)
  %18 = add nuw nsw i32 %17, 4
  br label %proto_mpeg_descriptor_dissect_multilng_bouquet_name_desc_measure_lng_len.exit

proto_mpeg_descriptor_dissect_multilng_bouquet_name_desc_measure_lng_len.exit: ; preds = %10, %12
  %.0.i = phi i32 [ %18, %12 ], [ 3, %10 ]
  %19 = load i32, ptr @ett_mpeg_descriptor_multilng_bouquet_name_desc_lng, align 4
  %20 = call ptr @proto_tree_add_subtree(ptr noundef %3, ptr noundef %0, i32 noundef %.060, i32 noundef %.0.i, i32 noundef %19, ptr noundef nonnull %6, ptr noundef null)
  %21 = load i32, ptr @hf_mpeg_descr_multilng_bouquet_name_desc_iso639_language_code, align 4
  %22 = call ptr @wmem_packet_scope()
  %23 = call ptr @proto_tree_add_item_ret_display_string(ptr noundef %20, i32 noundef %21, ptr noundef %0, i32 noundef %.060, i32 noundef 3, i32 noundef 0, ptr noundef %22, ptr noundef nonnull %5)
  %24 = load ptr, ptr %6, align 8
  %25 = load ptr, ptr %5, align 8
  call void (ptr, ptr, ...) @proto_item_set_text(ptr noundef %24, ptr noundef nonnull @.str.759, ptr noundef %25)
  br i1 %11, label %.thread, label %26

.thread:                                          ; preds = %8, %proto_mpeg_descriptor_dissect_multilng_bouquet_name_desc_measure_lng_len.exit
  call void @llvm.lifetime.end.p0(i64 8, ptr nonnull %6) #5
  call void @llvm.lifetime.end.p0(i64 8, ptr nonnull %5) #5
  br label %.loopexit

26:                                               ; preds = %proto_mpeg_descriptor_dissect_multilng_bouquet_name_desc_measure_lng_len.exit
  %27 = add i32 %.060, 3
  %28 = call zeroext i8 @tvb_get_uint8(ptr noundef %0, i32 noundef %27)
  %29 = load i32, ptr @hf_mpeg_descr_multilng_bouquet_name_desc_name_length, align 4
  %30 = call ptr @proto_tree_add_item(ptr noundef %20, i32 noundef %29, ptr noundef %0, i32 noundef %27, i32 noundef 1, i32 noundef 0)
  %31 = zext i8 %28 to i32
  %32 = add i32 %.04659, -4
  %33 = call i32 @llvm.umin.i32(i32 %32, i32 %31)
  %34 = add i32 %.060, 4
  call void @llvm.lifetime.start.p0(i64 4, ptr nonnull %7) #5
  %35 = call i32 @dvb_analyze_string_charset(ptr noundef %0, i32 noundef %34, i32 noundef %33, ptr noundef nonnull %7)
  %36 = load i32, ptr @hf_mpeg_descr_multilng_bouquet_name_desc_name_encoding, align 4
  %37 = load i32, ptr %7, align 4
  call void @dvb_add_chartbl(ptr noundef %20, i32 noundef %36, ptr noundef %0, i32 noundef %34, i32 noundef %35, i32 noundef %37)
  %38 = load i32, ptr @hf_mpeg_descr_multilng_bouquet_name_desc_name, align 4
  %39 = add i32 %35, %34
  %40 = sub i32 %33, %35
  %41 = load i32, ptr %7, align 4
  %42 = call i32 @dvb_enc_to_item_enc(i32 noundef %41)
  %43 = call ptr @proto_tree_add_item(ptr noundef %20, i32 noundef %38, ptr noundef %0, i32 noundef %39, i32 noundef %40, i32 noundef %42)
  call void @llvm.lifetime.end.p0(i64 4, ptr nonnull %7) #5
  %44 = sub i32 %32, %33
  %45 = add i32 %33, %34
  call void @llvm.lifetime.end.p0(i64 8, ptr nonnull %6) #5
  call void @llvm.lifetime.end.p0(i64 8, ptr nonnull %5) #5
  %.not = icmp eq i32 %44, 0
  br i1 %.not, label %.loopexit, label %8, !llvm.loop !23

.loopexit:                                        ; preds = %26, %.thread
  ret void
}